; Function Attrs: nounwind uwtable
define ptr @l_Lean_PersistentHashMap_foldlMAux_traverse___at_Lean_SMap_instForInProd___spec__9___rarg___lambda__1(ptr noundef %0, ptr noundef %1, ptr noundef %2, ptr noundef %3, ptr noundef %4, ptr noundef %5) local_unnamed_addr #0 {
  %7 = getelementptr inbounds nuw i8, ptr %5, i64 8
  %8 = load ptr, ptr %7, align 8, !tbaa !4
  %9 = ptrtoint ptr %8 to i64
  %10 = and i64 %9, 1
  %.not = icmp eq i64 %10, 0
  br i1 %.not, label %11, label %lean_inc.exit15

11:                                               ; preds = %6
  %.val.i = load i32, ptr %8, align 4, !tbaa !10
  %12 = icmp sgt i32 %.val.i, 0
  br i1 %12, label %13, label %15, !prof !15

13:                                               ; preds = %11
  %14 = add nuw i32 %.val.i, 1
  store i32 %14, ptr %8, align 4, !tbaa !10
  br label %lean_inc.exit15

15:                                               ; preds = %11
  %.not.i16 = icmp eq i32 %.val.i, 0
  br i1 %.not.i16, label %lean_inc.exit15, label %16

16:                                               ; preds = %15
  tail call void @lean_inc_ref_cold(ptr noundef nonnull %8) #3
  br label %lean_inc.exit15

lean_inc.exit15:                                  ; preds = %16, %15, %13, %6
  %17 = getelementptr inbounds nuw i8, ptr %5, i64 16
  %18 = load ptr, ptr %17, align 8, !tbaa !4
  %19 = ptrtoint ptr %18 to i64
  %20 = and i64 %19, 1
  %.not21 = icmp eq i64 %20, 0
  br i1 %.not21, label %21, label %lean_inc.exit

21:                                               ; preds = %lean_inc.exit15
  %.val.i17 = load i32, ptr %18, align 4, !tbaa !10
  %22 = icmp sgt i32 %.val.i17, 0
  br i1 %22, label %23, label %25, !prof !15

23:                                               ; preds = %21
  %24 = add nuw i32 %.val.i17, 1
  store i32 %24, ptr %18, align 4, !tbaa !10
  br label %lean_inc.exit

25:                                               ; preds = %21
  %.not.i18 = icmp eq i32 %.val.i17, 0
  br i1 %.not.i18, label %lean_inc.exit, label %26

26:                                               ; preds = %25
  tail call void @lean_inc_ref_cold(ptr noundef nonnull %18) #3
  br label %lean_inc.exit

lean_inc.exit:                                    ; preds = %26, %25, %23, %lean_inc.exit15
  %27 = ptrtoint ptr %5 to i64
  %28 = and i64 %27, 1
  %.not22 = icmp eq i64 %28, 0
  br i1 %.not22, label %29, label %lean_dec.exit

29:                                               ; preds = %lean_inc.exit
  %30 = load i32, ptr %5, align 4, !tbaa !10
  %31 = icmp sgt i32 %30, 1
  br i1 %31, label %32, label %34, !prof !15

32:                                               ; preds = %29
  %33 = add nsw i32 %30, -1
  store i32 %33, ptr %5, align 4, !tbaa !10
  br label %lean_dec.exit

34:                                               ; preds = %29
  %.not.i = icmp eq i32 %30, 0
  br i1 %.not.i, label %lean_dec.exit, label %35

35:                                               ; preds = %34
  tail call void @lean_dec_ref_cold(ptr noundef nonnull %5) #3
  br label %lean_dec.exit

lean_dec.exit:                                    ; preds = %35, %34, %32, %lean_inc.exit
  %36 = ptrtoint ptr %0 to i64
  %37 = and i64 %36, 1
  %.not23 = icmp eq i64 %37, 0
  br i1 %.not23, label %.critedge.i, label %38, !prof !18

38:                                               ; preds = %lean_dec.exit
  %39 = lshr i64 %36, 1
  %40 = add nuw i64 %39, 1
  %41 = icmp sgt i64 %40, -1
  br i1 %41, label %42, label %46, !prof !15

42:                                               ; preds = %38
  %43 = shl nuw i64 %40, 1
  %44 = or disjoint i64 %43, 1
  %45 = inttoptr i64 %44 to ptr
  br label %lean_nat_add.exit

46:                                               ; preds = %38
  %47 = tail call ptr @lean_big_usize_to_nat(i64 noundef range(i64 0, -1) %40) #3
  br label %lean_nat_add.exit

.critedge.i:                                      ; preds = %lean_dec.exit
  %48 = tail call ptr @lean_nat_big_add(ptr noundef %0, ptr noundef nonnull inttoptr (i64 3 to ptr)) #3
  br label %lean_nat_add.exit

lean_nat_add.exit:                                ; preds = %46, %42, %.critedge.i
  %.0.i = phi ptr [ %48, %.critedge.i ], [ %45, %42 ], [ %47, %46 ]
  %49 = tail call ptr @l_Lean_PersistentHashMap_foldlMAux_traverse___at_Lean_SMap_instForInProd___spec__9___rarg(ptr noundef %1, ptr nonnull poison, ptr nonnull poison, ptr nonnull poison, ptr noundef %2, ptr noundef %3, ptr noundef %4, ptr nonnull poison, ptr noundef %.0.i, ptr noundef %8, ptr noundef %18)
  ret ptr %49
}